; Function Attrs: nounwind uwtable
define internal void @exfree(ptr readnone captures(none) %0, ptr readnone captures(none) %1, ptr readnone captures(none) %2, i32 noundef %3, i64 noundef %4, ptr noundef %5) #0 {
  %7 = load i32, ptr @saved_idx, align 4, !tbaa !8
  %8 = tail call i32 @test_int_eq(ptr noundef nonnull @.str.1, i32 noundef 53, ptr noundef nonnull @.str.15, ptr noundef nonnull @.str.16, i32 noundef %3, i32 noundef %7) #2
  %.not = icmp eq i32 %8, 0
  br i1 %.not, label %15, label %9

9:                                                ; preds = %6
  %.b = load i1, ptr @saved_argl, align 8
  %10 = select i1 %.b, i64 21, i64 0
  %11 = tail call i32 @test_long_eq(ptr noundef nonnull @.str.1, i32 noundef 54, ptr noundef nonnull @.str.17, ptr noundef nonnull @.str.18, i64 noundef %4, i64 noundef %10) #2
  %.not2 = icmp eq i32 %11, 0
  br i1 %.not2, label %15, label %12

12:                                               ; preds = %9
  %13 = load ptr, ptr @saved_argp, align 8, !tbaa !4
  %14 = tail call i32 @test_ptr_eq(ptr noundef nonnull @.str.1, i32 noundef 55, ptr noundef nonnull @.str.19, ptr noundef nonnull @.str.20, ptr noundef %5, ptr noundef %13) #2
  %.not3 = icmp eq i32 %14, 0
  br i1 %.not3, label %15, label %16

15:                                               ; preds = %12, %9, %6
  store i1 false, ptr @gbl_result, align 4
  br label %16

16:                                               ; preds = %15, %12
  ret void
}